target datalayout = "e-m:e-p270:32:32-p271:32:32-p272:64:64-i64:64-i128:128-f80:128-n8:16:32:64-S128"
target triple = "x86_64-pc-linux-gnu"

; Function Attrs: mustprogress uwtable
define hidden i32 @hb_ot_tag_from_language(ptr noundef %0) #0 {
  %2 = alloca ptr, align 8
  %3 = alloca i32, align 4
  %4 = alloca [1 x i32], align 4
  store ptr %0, ptr %2, align 8
  store i32 1, ptr %3, align 4
  %5 = load ptr, ptr %2, align 8
  %6 = getelementptr inbounds [1 x i32], ptr %4, i64 0, i64 0
  call void @hb_ot_tags_from_script_and_language(i32 noundef 1517976186, ptr noundef %5, ptr noundef null, ptr noundef null, ptr noundef %3, ptr noundef %6)
  %7 = load i32, ptr %3, align 4
  %8 = icmp ugt i32 %7, 0
  br i1 %8, label %9, label %12

9:                                                ; preds = %1
  %10 = getelementptr inbounds [1 x i32], ptr %4, i64 0, i64 0
  %11 = load i32, ptr %10, align 4
  br label %13

12:                                               ; preds = %1
  br label %13

13:                                               ; preds = %12, %9
  %14 = phi i32 [ %11, %9 ], [ 1684434036, %12 ]
  ret i32 %14
}