; Function Attrs: mustprogress uwtable
define hidden i32 @hb_ot_tag_from_language(ptr noundef %0) local_unnamed_addr #0 {
  %2 = alloca i32, align 4
  %3 = alloca [1 x i32], align 4
  store i32 1, ptr %2, align 4
  call void @hb_ot_tags_from_script_and_language(i32 noundef 1517976186, ptr noundef %0, ptr noundef null, ptr noundef null, ptr noundef nonnull %2, ptr noundef nonnull %3)
  %4 = load i32, ptr %2, align 4
  %.not = icmp eq i32 %4, 0
  %5 = load i32, ptr %3, align 4
  %6 = select i1 %.not, i32 1684434036, i32 %5
  ret i32 %6
}